target datalayout = "e-m:e-p270:32:32-p271:32:32-p272:64:64-i64:64-i128:128-f80:128-n8:16:32:64-S128"
target triple = "x86_64-pc-linux-gnu"

%struct._write_data = type { i32, ptr }

@.str.19 = private unnamed_addr constant [28 x i8] c"write_cb() realloc failure\0A\00", align 1

; Function Attrs: nounwind uwtable
define dso_local i64 @write_cb(ptr noundef %0, i64 noundef %1, i64 noundef %2, ptr noundef %3) #0 {
  %5 = alloca i64, align 8
  %6 = alloca ptr, align 8
  %7 = alloca i64, align 8
  %8 = alloca i64, align 8
  %9 = alloca ptr, align 8
  %10 = alloca i32, align 4
  %11 = alloca ptr, align 8
  %12 = alloca ptr, align 8
  store ptr %0, ptr %6, align 8
  store i64 %1, ptr %7, align 8
  store i64 %2, ptr %8, align 8
  store ptr %3, ptr %9, align 8
  %13 = load i64, ptr %7, align 8
  %14 = load i64, ptr %8, align 8
  %15 = mul i64 %13, %14
  %16 = trunc i64 %15 to i32
  store i32 %16, ptr %10, align 4
  %17 = load ptr, ptr %9, align 8
  store ptr %17, ptr %12, align 8
  %18 = load i32, ptr %10, align 4
  %19 = icmp ne i32 %18, 0
  br i1 %19, label %20, label %62

20:                                               ; preds = %4
  %21 = load ptr, ptr %12, align 8
  %22 = getelementptr inbounds %struct._write_data, ptr %21, i32 0, i32 1
  %23 = load ptr, ptr %22, align 8
  %24 = load ptr, ptr %12, align 8
  %25 = getelementptr inbounds %struct._write_data, ptr %24, i32 0, i32 0
  %26 = load i32, ptr %25, align 8
  %27 = load i32, ptr %10, align 4
  %28 = add nsw i32 %26, %27
  %29 = add nsw i32 %28, 1
  %30 = sext i32 %29 to i64
  %31 = call ptr @realloc(ptr noundef %23, i64 noundef %30) #13
  store ptr %31, ptr %11, align 8
  %32 = load ptr, ptr %11, align 8
  %33 = icmp eq ptr %32, null
  br i1 %33, label %34, label %36

34:                                               ; preds = %20
  %35 = call i32 (i32, ptr, ...) @logg(i32 noundef 5, ptr noundef @.str.19)
  store i64 0, ptr %5, align 8
  br label %65

36:                                               ; preds = %20
  %37 = load ptr, ptr %11, align 8
  %38 = load ptr, ptr %12, align 8
  %39 = getelementptr inbounds %struct._write_data, ptr %38, i32 0, i32 0
  %40 = load i32, ptr %39, align 8
  %41 = sext i32 %40 to i64
  %42 = getelementptr inbounds i8, ptr %37, i64 %41
  %43 = load ptr, ptr %6, align 8
  %44 = load i32, ptr %10, align 4
  %45 = sext i32 %44 to i64
  call void @llvm.memcpy.p0.p0.i64(ptr align 1 %42, ptr align 1 %43, i64 %45, i1 false)
  %46 = load ptr, ptr %11, align 8
  %47 = load ptr, ptr %12, align 8
  %48 = getelementptr inbounds %struct._write_data, ptr %47, i32 0, i32 0
  %49 = load i32, ptr %48, align 8
  %50 = load i32, ptr %10, align 4
  %51 = add nsw i32 %49, %50
  %52 = sext i32 %51 to i64
  %53 = getelementptr inbounds i8, ptr %46, i64 %52
  store i8 0, ptr %53, align 1
  %54 = load ptr, ptr %11, align 8
  %55 = load ptr, ptr %12, align 8
  %56 = getelementptr inbounds %struct._write_data, ptr %55, i32 0, i32 1
  store ptr %54, ptr %56, align 8
  %57 = load i32, ptr %10, align 4
  %58 = load ptr, ptr %12, align 8
  %59 = getelementptr inbounds %struct._write_data, ptr %58, i32 0, i32 0
  %60 = load i32, ptr %59, align 8
  %61 = add nsw i32 %60, %57
  store i32 %61, ptr %59, align 8
  br label %62

62:                                               ; preds = %36, %4
  %63 = load i32, ptr %10, align 4
  %64 = sext i32 %63 to i64
  store i64 %64, ptr %5, align 8
  br label %65

65:                                               ; preds = %62, %34
  %66 = load i64, ptr %5, align 8
  ret i64 %66
}