; Function Attrs: nounwind uwtable
define dso_local i64 @write_cb(ptr nocapture noundef readonly %0, i64 noundef %1, i64 noundef %2, ptr nocapture noundef %3) #4 {
  %5 = mul i64 %2, %1
  %6 = trunc i64 %5 to i32
  %.not = icmp eq i32 %6, 0
  br i1 %.not, label %._crit_edge, label %7

7:                                                ; preds = %4
  %8 = getelementptr inbounds i8, ptr %3, i64 8
  %9 = load ptr, ptr %8, align 8
  %10 = load i32, ptr %3, align 8
  %11 = add i32 %6, 1
  %12 = add i32 %11, %10
  %13 = sext i32 %12 to i64
  %14 = tail call ptr @realloc(ptr noundef %9, i64 noundef %13) #16
  %15 = icmp eq ptr %14, null
  br i1 %15, label %16, label %18

16:                                               ; preds = %7
  %17 = tail call i32 (i32, ptr, ...) @logg(i32 noundef 5, ptr noundef nonnull @.str.19) #12
  br label %._crit_edge

18:                                               ; preds = %7
  %19 = load i32, ptr %3, align 8
  %20 = sext i32 %19 to i64
  %21 = getelementptr inbounds i8, ptr %14, i64 %20
  %sext = shl i64 %5, 32
  %22 = ashr exact i64 %sext, 32
  tail call void @llvm.memcpy.p0.p0.i64(ptr nonnull align 1 %21, ptr align 1 %0, i64 %22, i1 false)
  %23 = add nsw i32 %19, %6
  %24 = sext i32 %23 to i64
  %25 = getelementptr inbounds i8, ptr %14, i64 %24
  store i8 0, ptr %25, align 1
  store ptr %14, ptr %8, align 8
  store i32 %23, ptr %3, align 8
  br label %._crit_edge

._crit_edge:                                      ; preds = %18, %4, %16
  %.0 = phi i64 [ 0, %16 ], [ %22, %18 ], [ 0, %4 ]
  ret i64 %.0
}